target datalayout = "e-m:e-p270:32:32-p271:32:32-p272:64:64-i64:64-i128:128-f80:128-n8:16:32:64-S128"
target triple = "x86_64-pc-linux-gnu"

%struct.rb_io_encoding = type { ptr, ptr, i32, i64 }
%struct.RBasic = type { i64, i64 }
%struct.RData = type { %struct.RBasic, ptr, ptr, ptr }
%struct.argf = type { i64, i64, i64, i64, i64, i64, %struct.rb_io_encoding, i8, i8, i8 }

; Function Attrs: nounwind sspstrong uwtable
define internal i64 @argf_file(i64 noundef %0) #0 {
  %2 = alloca i64, align 8
  store i64 %0, ptr %2, align 8, !tbaa !32
  %3 = load i64, ptr %2, align 8, !tbaa !32
  %4 = call i32 @argf_next_argv(i64 noundef %3)
  %5 = load i64, ptr %2, align 8, !tbaa !32
  %6 = inttoptr i64 %5 to ptr
  %7 = getelementptr inbounds nuw %struct.RData, ptr %6, i32 0, i32 3
  %8 = load ptr, ptr %7, align 8, !tbaa !62
  %9 = getelementptr inbounds nuw %struct.argf, ptr %8, i32 0, i32 1
  %10 = load i64, ptr %9, align 8, !tbaa !64
  ret i64 %10
}