; Function Attrs: nounwind sspstrong uwtable
define internal i64 @argf_file(i64 noundef %0) #0 {
  %2 = tail call fastcc i32 @argf_next_argv(i64 noundef %0)
  %3 = inttoptr i64 %0 to ptr
  %4 = getelementptr inbounds nuw i8, ptr %3, i64 32
  %5 = load ptr, ptr %4, align 8, !tbaa !59
  %6 = getelementptr inbounds nuw i8, ptr %5, i64 8
  %7 = load i64, ptr %6, align 8, !tbaa !61
  ret i64 %7
}